; ModuleID = '53/1656.c'
source_filename = "53/1656.c"
target datalayout = "e-m:e-p270:32:32-p271:32:32-p272:64:64-i64:64-f80:128-n8:16:32:64-S128"
target triple = "x86_64-pc-linux-gnu"

@.str = private unnamed_addr constant [3 x i8] c"%d\00", align 1
@.str.1 = private unnamed_addr constant [4 x i8] c",%d\00", align 1

; Function Attrs: noinline nounwind uwtable
define dso_local i32 @main() #0 {
  %1 = alloca i32, align 4
  %2 = alloca [300 x [2 x i32]], align 16
  %3 = alloca i32, align 4
  %4 = alloca i32, align 4
  %5 = alloca i32, align 4
  store i32 0, i32* %1, align 4
  store i32 0, i32* %3, align 4
  br label %6

6:                                                ; preds = %18, %0
  %7 = load i32, i32* %3, align 4
  %8 = icmp slt i32 %7, 300
  br i1 %8, label %9, label %21

9:                                                ; preds = %6
  %10 = load i32, i32* %3, align 4
  %11 = sext i32 %10 to i64
  %12 = getelementptr inbounds [300 x [2 x i32]], [300 x [2 x i32]]* %2, i64 0, i64 %11
  %13 = getelementptr inbounds [2 x i32], [2 x i32]* %12, i64 0, i64 1
  store i32 0, i32* %13, align 4
  %14 = load i32, i32* %3, align 4
  %15 = sext i32 %14 to i64
  %16 = getelementptr inbounds [300 x [2 x i32]], [300 x [2 x i32]]* %2, i64 0, i64 %15
  %17 = getelementptr inbounds [2 x i32], [2 x i32]* %16, i64 0, i64 0
  store i32 0, i32* %17, align 8
  br label %18

18:                                               ; preds = %9
  %19 = load i32, i32* %3, align 4
  %20 = add nsw i32 %19, 1
  store i32 %20, i32* %3, align 4
  br label %6

21:                                               ; preds = %6
  %22 = call i32 (i8*, ...) @__isoc99_scanf(i8* getelementptr inbounds ([3 x i8], [3 x i8]* @.str, i64 0, i64 0), i32* %5)
  store i32 0, i32* %3, align 4
  br label %23

23:                                               ; preds = %33, %21
  %24 = load i32, i32* %3, align 4
  %25 = load i32, i32* %5, align 4
  %26 = icmp slt i32 %24, %25
  br i1 %26, label %27, label %36

27:                                               ; preds = %23
  %28 = load i32, i32* %3, align 4
  %29 = sext i32 %28 to i64
  %30 = getelementptr inbounds [300 x [2 x i32]], [300 x [2 x i32]]* %2, i64 0, i64 %29
  %31 = getelementptr inbounds [2 x i32], [2 x i32]* %30, i64 0, i64 0
  %32 = call i32 (i8*, ...) @__isoc99_scanf(i8* getelementptr inbounds ([3 x i8], [3 x i8]* @.str, i64 0, i64 0), i32* %31)
  br label %33

33:                                               ; preds = %27
  %34 = load i32, i32* %3, align 4
  %35 = add nsw i32 %34, 1
  store i32 %35, i32* %3, align 4
  br label %23

36:                                               ; preds = %23
  store i32 0, i32* %3, align 4
  br label %37

37:                                               ; preds = %70, %36
  %38 = load i32, i32* %3, align 4
  %39 = load i32, i32* %5, align 4
  %40 = icmp slt i32 %38, %39
  br i1 %40, label %41, label %73

41:                                               ; preds = %37
  %42 = load i32, i32* %3, align 4
  %43 = add nsw i32 %42, 1
  store i32 %43, i32* %4, align 4
  br label %44

44:                                               ; preds = %66, %41
  %45 = load i32, i32* %4, align 4
  %46 = load i32, i32* %5, align 4
  %47 = icmp slt i32 %45, %46
  br i1 %47, label %48, label %69

48:                                               ; preds = %44
  %49 = load i32, i32* %4, align 4
  %50 = sext i32 %49 to i64
  %51 = getelementptr inbounds [300 x [2 x i32]], [300 x [2 x i32]]* %2, i64 0, i64 %50
  %52 = getelementptr inbounds [2 x i32], [2 x i32]* %51, i64 0, i64 0
  %53 = load i32, i32* %52, align 8
  %54 = load i32, i32* %3, align 4
  %55 = sext i32 %54 to i64
  %56 = getelementptr inbounds [300 x [2 x i32]], [300 x [2 x i32]]* %2, i64 0, i64 %55
  %57 = getelementptr inbounds [2 x i32], [2 x i32]* %56, i64 0, i64 0
  %58 = load i32, i32* %57, align 8
  %59 = icmp eq i32 %53, %58
  br i1 %59, label %60, label %65

60:                                               ; preds = %48
  %61 = load i32, i32* %4, align 4
  %62 = sext i32 %61 to i64
  %63 = getelementptr inbounds [300 x [2 x i32]], [300 x [2 x i32]]* %2, i64 0, i64 %62
  %64 = getelementptr inbounds [2 x i32], [2 x i32]* %63, i64 0, i64 1
  store i32 1, i32* %64, align 4
  br label %65

65:                                               ; preds = %60, %48
  br label %66

66:                                               ; preds = %65
  %67 = load i32, i32* %4, align 4
  %68 = add nsw i32 %67, 1
  store i32 %68, i32* %4, align 4
  br label %44

69:                                               ; preds = %44
  br label %70

70:                                               ; preds = %69
  %71 = load i32, i32* %3, align 4
  %72 = add nsw i32 %71, 1
  store i32 %72, i32* %3, align 4
  br label %37

73:                                               ; preds = %37
  store i32 0, i32* %3, align 4
  br label %74

74:                                               ; preds = %106, %73
  %75 = load i32, i32* %3, align 4
  %76 = load i32, i32* %5, align 4
  %77 = icmp slt i32 %75, %76
  br i1 %77, label %78, label %109

78:                                               ; preds = %74
  %79 = load i32, i32* %3, align 4
  %80 = sext i32 %79 to i64
  %81 = getelementptr inbounds [300 x [2 x i32]], [300 x [2 x i32]]* %2, i64 0, i64 %80
  %82 = getelementptr inbounds [2 x i32], [2 x i32]* %81, i64 0, i64 1
  %83 = load i32, i32* %82, align 4
  %84 = icmp eq i32 %83, 0
  br i1 %84, label %85, label %105

85:                                               ; preds = %78
  %86 = load i32, i32* %3, align 4
  %87 = icmp sge i32 %86, 1
  br i1 %87, label %88, label %95

88:                                               ; preds = %85
  %89 = load i32, i32* %3, align 4
  %90 = sext i32 %89 to i64
  %91 = getelementptr inbounds [300 x [2 x i32]], [300 x [2 x i32]]* %2, i64 0, i64 %90
  %92 = getelementptr inbounds [2 x i32], [2 x i32]* %91, i64 0, i64 0
  %93 = load i32, i32* %92, align 8
  %94 = call i32 (i8*, ...) @printf(i8* getelementptr inbounds ([4 x i8], [4 x i8]* @.str.1, i64 0, i64 0), i32 %93)
  br label %104

95:                                               ; preds = %85
  %96 = load i32, i32* %3, align 4
  %97 = icmp eq i32 %96, 0
  br i1 %97, label %98, label %103

98:                                               ; preds = %95
  %99 = getelementptr inbounds [300 x [2 x i32]], [300 x [2 x i32]]* %2, i64 0, i64 0
  %100 = getelementptr inbounds [2 x i32], [2 x i32]* %99, i64 0, i64 0
  %101 = load i32, i32* %100, align 16
  %102 = call i32 (i8*, ...) @printf(i8* getelementptr inbounds ([3 x i8], [3 x i8]* @.str, i64 0, i64 0), i32 %101)
  br label %103

103:                                              ; preds = %98, %95
  br label %104

104:                                              ; preds = %103, %88
  br label %105

105:                                              ; preds = %104, %78
  br label %106

106:                                              ; preds = %105
  %107 = load i32, i32* %3, align 4
  %108 = add nsw i32 %107, 1
  store i32 %108, i32* %3, align 4
  br label %74

109:                                              ; preds = %74
  %110 = load i32, i32* %1, align 4
  ret i32 %110
}

declare dso_local i32 @__isoc99_scanf(i8*, ...) #1

declare dso_local i32 @printf(i8*, ...) #1


!llvm.module.flags = !{!0}
!llvm.ident = !{!1}

!0 = !{i32 1, !"wchar_size", i32 4}
!1 = !{!"clang version 10.0.0-4ubuntu1 "}
